target datalayout = "e-m:e-p270:32:32-p271:32:32-p272:64:64-i64:64-i128:128-f80:128-n8:16:32:64-S128"
target triple = "x86_64-pc-linux-gnu"

%struct._zend_array = type { %struct._zend_refcounted_h, %union.anon.0, i32, %union.anon.1, i32, i32, i32, i32, i64, ptr }
%struct._zend_refcounted_h = type { i32, %union.anon }
%union.anon = type { i32 }
%union.anon.0 = type { i32 }
%union.anon.1 = type { ptr }
%struct._zend_executor_globals = type { %struct._zval_struct, %struct._zval_struct, [32 x ptr], ptr, ptr, %struct._zend_array, %struct._zend_array, ptr, i32, i8, %struct._zval_struct, i32, ptr, ptr, ptr, ptr, ptr, ptr, i64, ptr, ptr, i32, ptr, i32, i64, i32, i32, i32, i8, i8, %struct.zend_atomic_bool_s, %struct.zend_atomic_bool_s, ptr, i64, ptr, ptr, %struct._zend_array, %struct._zend_array, i32, i8, %struct._zval_struct, %struct._zval_struct, %struct._zend_stack, %struct._zend_stack, %struct._zend_stack, ptr, i32, i32, i64, ptr, ptr, ptr, %struct._zend_objects_store, %struct._zend_lazy_objects_store, ptr, ptr, ptr, [3 x %struct._zend_op], ptr, i8, i8, i64, i32, i32, ptr, [16 x %struct._HashTableIterator], ptr, %union._zend_function, %struct._zend_op, %struct._zend_array, i64, %struct.zend_get_gc_buffer, ptr, ptr, ptr, i64, i8, i32, ptr, ptr, i64, %struct._zend_call_stack, i64, i64, %struct._zend_strtod_state, [6 x ptr] }
%struct.zend_atomic_bool_s = type { i8 }
%struct._zval_struct = type { %union._zend_value, %union.anon.3, %union.anon.6 }
%union._zend_value = type { i64 }
%union.anon.3 = type { i32 }
%union.anon.6 = type { i32 }
%struct._zend_stack = type { i32, i32, i32, ptr }
%struct._zend_objects_store = type { ptr, i32, i32, i32 }
%struct._zend_lazy_objects_store = type { %struct._zend_array }
%struct._HashTableIterator = type { ptr, i32, i32 }
%union._zend_function = type { %struct._zend_op_array }
%struct._zend_op_array = type { i8, [3 x i8], i32, ptr, ptr, ptr, i32, i32, ptr, ptr, ptr, ptr, i32, ptr, i32, i32, i32, ptr, ptr, ptr, ptr, ptr, i32, i32, ptr, ptr, ptr, i32, i32, i32, i32, ptr, ptr, [6 x ptr] }
%struct._zend_op = type { ptr, %union._znode_op, %union._znode_op, %union._znode_op, i32, i32, i8, i8, i8, i8 }
%union._znode_op = type { i32 }
%struct.zend_get_gc_buffer = type { ptr, ptr, ptr }
%struct._zend_call_stack = type { ptr, i64 }
%struct._zend_strtod_state = type { [8 x ptr], ptr, ptr }
%struct.stat = type { i64, i64, i64, i32, i32, i32, i32, i64, i64, i64, i64, %struct.timespec, %struct.timespec, %struct.timespec, [3 x i64] }
%struct.timespec = type { i64, i64 }
%struct._php_stream_statbuf = type { %struct.stat }
%struct.__jmp_buf_tag = type { [8 x i64], i32, %struct.__sigset_t }
%struct.__sigset_t = type { [16 x i64] }
%struct._php_stream_wrapper = type { ptr, ptr, i32 }
%struct._php_stream_wrapper_ops = type { ptr, ptr, ptr, ptr, ptr, ptr, ptr, ptr, ptr, ptr, ptr }

@executor_globals = external global %struct._zend_executor_globals, align 8

; Function Attrs: nounwind uwtable
define internal i32 @zend_get_stream_timestamp(ptr noundef %0, ptr noundef %1) #0 {
  %3 = alloca i32, align 4
  %4 = alloca ptr, align 8
  %5 = alloca ptr, align 8
  %6 = alloca ptr, align 8
  %7 = alloca %struct._php_stream_statbuf, align 8
  %8 = alloca i32, align 4
  %9 = alloca i32, align 4
  %10 = alloca i32, align 4
  %11 = alloca ptr, align 8
  %12 = alloca [1 x %struct.__jmp_buf_tag], align 16
  store ptr %0, ptr %4, align 8, !tbaa !41
  store ptr %1, ptr %5, align 8, !tbaa !104
  call void @llvm.lifetime.start.p0(i64 8, ptr %6) #19
  call void @llvm.lifetime.start.p0(i64 144, ptr %7) #19
  call void @llvm.lifetime.start.p0(i64 4, ptr %8) #19
  call void @llvm.lifetime.start.p0(i64 4, ptr %9) #19
  %13 = load ptr, ptr %4, align 8, !tbaa !41
  %14 = icmp ne ptr %13, null
  br i1 %14, label %16, label %15

15:                                               ; preds = %2
  store i32 -1, ptr %3, align 4
  store i32 1, ptr %10, align 4
  br label %64

16:                                               ; preds = %2
  %17 = load ptr, ptr %4, align 8, !tbaa !41
  %18 = call ptr @php_stream_locate_url_wrapper(ptr noundef %17, ptr noundef null, i32 noundef 64)
  store ptr %18, ptr %6, align 8, !tbaa !130
  %19 = load ptr, ptr %6, align 8, !tbaa !130
  %20 = icmp ne ptr %19, null
  br i1 %20, label %22, label %21

21:                                               ; preds = %16
  store i32 -1, ptr %3, align 4
  store i32 1, ptr %10, align 4
  br label %64

22:                                               ; preds = %16
  %23 = load ptr, ptr %6, align 8, !tbaa !130
  %24 = getelementptr inbounds nuw %struct._php_stream_wrapper, ptr %23, i32 0, i32 0
  %25 = load ptr, ptr %24, align 8, !tbaa !131
  %26 = icmp ne ptr %25, null
  br i1 %26, label %27, label %34

27:                                               ; preds = %22
  %28 = load ptr, ptr %6, align 8, !tbaa !130
  %29 = getelementptr inbounds nuw %struct._php_stream_wrapper, ptr %28, i32 0, i32 0
  %30 = load ptr, ptr %29, align 8, !tbaa !131
  %31 = getelementptr inbounds nuw %struct._php_stream_wrapper_ops, ptr %30, i32 0, i32 3
  %32 = load ptr, ptr %31, align 8, !tbaa !134
  %33 = icmp ne ptr %32, null
  br i1 %33, label %38, label %34

34:                                               ; preds = %27, %22
  %35 = load ptr, ptr %5, align 8, !tbaa !104
  %36 = getelementptr inbounds nuw %struct.stat, ptr %35, i32 0, i32 12
  %37 = getelementptr inbounds nuw %struct.timespec, ptr %36, i32 0, i32 0
  store i64 1, ptr %37, align 8, !tbaa !109
  store i32 0, ptr %3, align 4
  store i32 1, ptr %10, align 4
  br label %64

38:                                               ; preds = %27
  %39 = load i32, ptr getelementptr inbounds nuw (%struct._zend_executor_globals, ptr @executor_globals, i32 0, i32 8), align 8, !tbaa !126
  store i32 %39, ptr %9, align 4, !tbaa !4
  store i32 0, ptr getelementptr inbounds nuw (%struct._zend_executor_globals, ptr @executor_globals, i32 0, i32 8), align 8, !tbaa !126
  call void @llvm.lifetime.start.p0(i64 8, ptr %11) #19
  %40 = load ptr, ptr getelementptr inbounds nuw (%struct._zend_executor_globals, ptr @executor_globals, i32 0, i32 7), align 8, !tbaa !127
  store ptr %40, ptr %11, align 8, !tbaa !128
  call void @llvm.lifetime.start.p0(i64 200, ptr %12) #19
  store ptr %12, ptr getelementptr inbounds nuw (%struct._zend_executor_globals, ptr @executor_globals, i32 0, i32 7), align 8, !tbaa !127
  %41 = getelementptr inbounds [1 x %struct.__jmp_buf_tag], ptr %12, i64 0, i64 0
  %42 = call i32 @__sigsetjmp(ptr noundef %41, i32 noundef 0) #20
  %43 = icmp eq i32 %42, 0
  br i1 %43, label %44, label %53

44:                                               ; preds = %38
  %45 = load ptr, ptr %6, align 8, !tbaa !130
  %46 = getelementptr inbounds nuw %struct._php_stream_wrapper, ptr %45, i32 0, i32 0
  %47 = load ptr, ptr %46, align 8, !tbaa !131
  %48 = getelementptr inbounds nuw %struct._php_stream_wrapper_ops, ptr %47, i32 0, i32 3
  %49 = load ptr, ptr %48, align 8, !tbaa !134
  %50 = load ptr, ptr %6, align 8, !tbaa !130
  %51 = load ptr, ptr %4, align 8, !tbaa !41
  %52 = call i32 %49(ptr noundef %50, ptr noundef %51, i32 noundef 2, ptr noundef %7, ptr noundef null)
  store i32 %52, ptr %8, align 4, !tbaa !4
  br label %55

53:                                               ; preds = %38
  %54 = load ptr, ptr %11, align 8, !tbaa !128
  store ptr %54, ptr getelementptr inbounds nuw (%struct._zend_executor_globals, ptr @executor_globals, i32 0, i32 7), align 8, !tbaa !127
  store i32 -1, ptr %8, align 4, !tbaa !4
  br label %55

55:                                               ; preds = %53, %44
  %56 = load ptr, ptr %11, align 8, !tbaa !128
  store ptr %56, ptr getelementptr inbounds nuw (%struct._zend_executor_globals, ptr @executor_globals, i32 0, i32 7), align 8, !tbaa !127
  call void @llvm.lifetime.end.p0(i64 200, ptr %12) #19
  call void @llvm.lifetime.end.p0(i64 8, ptr %11) #19
  %57 = load i32, ptr %9, align 4, !tbaa !4
  store i32 %57, ptr getelementptr inbounds nuw (%struct._zend_executor_globals, ptr @executor_globals, i32 0, i32 8), align 8, !tbaa !126
  %58 = load i32, ptr %8, align 4, !tbaa !4
  %59 = icmp ne i32 %58, 0
  br i1 %59, label %60, label %61

60:                                               ; preds = %55
  store i32 -1, ptr %3, align 4
  store i32 1, ptr %10, align 4
  br label %64

61:                                               ; preds = %55
  %62 = load ptr, ptr %5, align 8, !tbaa !104
  %63 = getelementptr inbounds nuw %struct._php_stream_statbuf, ptr %7, i32 0, i32 0
  call void @llvm.memcpy.p0.p0.i64(ptr align 8 %62, ptr align 8 %63, i64 144, i1 false), !tbaa.struct !129
  store i32 0, ptr %3, align 4
  store i32 1, ptr %10, align 4
  br label %64

64:                                               ; preds = %61, %60, %34, %21, %15
  call void @llvm.lifetime.end.p0(i64 4, ptr %9) #19
  call void @llvm.lifetime.end.p0(i64 4, ptr %8) #19
  call void @llvm.lifetime.end.p0(i64 144, ptr %7) #19
  call void @llvm.lifetime.end.p0(i64 8, ptr %6) #19
  %65 = load i32, ptr %3, align 4
  ret i32 %65
}