; Function Attrs: nounwind uwtable
define internal fastcc range(i32 -1, 1) i32 @zend_get_stream_timestamp(ptr noundef %0, ptr noundef nonnull writeonly captures(none) %1) unnamed_addr #0 {
  %3 = alloca %struct._php_stream_statbuf, align 8
  %4 = alloca [1 x %struct.__jmp_buf_tag], align 16
  call void @llvm.lifetime.start.p0(i64 144, ptr nonnull %3) #26
  %.not = icmp eq ptr %0, null
  br i1 %.not, label %26, label %5

5:                                                ; preds = %2
  %6 = call ptr @php_stream_locate_url_wrapper(ptr noundef nonnull %0, ptr noundef null, i32 noundef 64) #26
  %.not18 = icmp eq ptr %6, null
  br i1 %.not18, label %26, label %7

7:                                                ; preds = %5
  %8 = load ptr, ptr %6, align 8, !tbaa !119
  %.not19 = icmp eq ptr %8, null
  br i1 %.not19, label %12, label %9

9:                                                ; preds = %7
  %10 = getelementptr inbounds nuw i8, ptr %8, i64 24
  %11 = load ptr, ptr %10, align 8, !tbaa !122
  %.not20 = icmp eq ptr %11, null
  br i1 %.not20, label %12, label %14

12:                                               ; preds = %9, %7
  %13 = getelementptr inbounds nuw i8, ptr %1, i64 88
  store i64 1, ptr %13, align 8, !tbaa !74
  br label %26

14:                                               ; preds = %9
  %15 = load i32, ptr getelementptr inbounds nuw (i8, ptr @executor_globals, i64 424), align 8, !tbaa !91
  store i32 0, ptr getelementptr inbounds nuw (i8, ptr @executor_globals, i64 424), align 8, !tbaa !91
  %16 = load ptr, ptr getelementptr inbounds nuw (i8, ptr @executor_globals, i64 416), align 8, !tbaa !117
  call void @llvm.lifetime.start.p0(i64 200, ptr nonnull %4) #26
  store ptr %4, ptr getelementptr inbounds nuw (i8, ptr @executor_globals, i64 416), align 8, !tbaa !117
  %17 = call i32 @__sigsetjmp(ptr noundef nonnull %4, i32 noundef 0) #27
  %18 = icmp eq i32 %17, 0
  br i1 %18, label %19, label %.critedge

19:                                               ; preds = %14
  %20 = load ptr, ptr %6, align 8, !tbaa !119
  %21 = getelementptr inbounds nuw i8, ptr %20, i64 24
  %22 = load ptr, ptr %21, align 8, !tbaa !122
  %23 = call i32 %22(ptr noundef nonnull %6, ptr noundef nonnull %0, i32 noundef 2, ptr noundef nonnull %3, ptr noundef null) #26
  %24 = icmp eq i32 %23, 0
  store ptr %16, ptr getelementptr inbounds nuw (i8, ptr @executor_globals, i64 416), align 8, !tbaa !117
  call void @llvm.lifetime.end.p0(i64 200, ptr nonnull %4) #26
  store i32 %15, ptr getelementptr inbounds nuw (i8, ptr @executor_globals, i64 424), align 8, !tbaa !91
  br i1 %24, label %25, label %26

.critedge:                                        ; preds = %14
  store ptr %16, ptr getelementptr inbounds nuw (i8, ptr @executor_globals, i64 416), align 8, !tbaa !117
  call void @llvm.lifetime.end.p0(i64 200, ptr nonnull %4) #26
  store i32 %15, ptr getelementptr inbounds nuw (i8, ptr @executor_globals, i64 424), align 8, !tbaa !91
  br label %26

25:                                               ; preds = %19
  call void @llvm.memcpy.p0.p0.i64(ptr noundef nonnull align 8 dereferenceable(144) %1, ptr noundef nonnull align 8 dereferenceable(144) %3, i64 144, i1 false), !tbaa.struct !118
  br label %26

26:                                               ; preds = %19, %.critedge, %5, %2, %25, %12
  %.0 = phi i32 [ 0, %25 ], [ 0, %12 ], [ -1, %2 ], [ -1, %5 ], [ -1, %.critedge ], [ -1, %19 ]
  call void @llvm.lifetime.end.p0(i64 144, ptr nonnull %3) #26
  ret i32 %.0
}